target datalayout = "e-m:e-p270:32:32-p271:32:32-p272:64:64-i64:64-i128:128-f80:128-n8:16:32:64-S128"
target triple = "x86_64-pc-linux-gnu"

%"class.arrow::compute::FunctionOptions" = type { ptr, ptr }
%"class.arrow::compute::ScatterOptions" = type { %"class.arrow::compute::FunctionOptions", i64 }

@_ZN5arrow7compute8internal12_GLOBAL__N_119kScatterOptionsTypeE = internal global ptr null, align 8
@_ZTVN5arrow7compute14ScatterOptionsE = linkonce_odr unnamed_addr constant { [4 x ptr] } { [4 x ptr] [ptr null, ptr @_ZTIN5arrow7compute14ScatterOptionsE, ptr @_ZN5arrow4util18EqualityComparableINS_7compute15FunctionOptionsEED2Ev, ptr @_ZN5arrow7compute14ScatterOptionsD0Ev] }, comdat, align 8
@_ZTVN5arrow7compute15FunctionOptionsE = linkonce_odr unnamed_addr constant { [4 x ptr] } { [4 x ptr] [ptr null, ptr @_ZTIN5arrow7compute15FunctionOptionsE, ptr @_ZN5arrow4util18EqualityComparableINS_7compute15FunctionOptionsEED2Ev, ptr @_ZN5arrow7compute15FunctionOptionsD0Ev] }, comdat, align 8

; Function Attrs: mustprogress nounwind uwtable
define linkonce_odr void @_ZN5arrow7compute15FunctionOptionsC2EPKNS0_19FunctionOptionsTypeE(ptr noundef nonnull align 8 dereferenceable(16) %0, ptr noundef %1) unnamed_addr #0 comdat align 2 {
  %3 = alloca ptr, align 8
  %4 = alloca ptr, align 8
  store ptr %0, ptr %3, align 8, !tbaa !170
  store ptr %1, ptr %4, align 8, !tbaa !53
  %5 = load ptr, ptr %3, align 8
  store ptr getelementptr inbounds inrange(-16, 16) ({ [4 x ptr] }, ptr @_ZTVN5arrow7compute15FunctionOptionsE, i32 0, i32 0, i32 2), ptr %5, align 8, !tbaa !165
  %6 = getelementptr inbounds nuw %"class.arrow::compute::FunctionOptions", ptr %5, i32 0, i32 1
  %7 = load ptr, ptr %4, align 8, !tbaa !53
  store ptr %7, ptr %6, align 8, !tbaa !172
  ret void
}

; Function Attrs: mustprogress uwtable
define void @_ZN5arrow7compute14ScatterOptionsC2El(ptr noundef nonnull align 8 dereferenceable(24) %0, i64 noundef %1) unnamed_addr #2 align 2 {
  %3 = alloca ptr, align 8
  %4 = alloca i64, align 8
  store ptr %0, ptr %3, align 8, !tbaa !277
  store i64 %1, ptr %4, align 8, !tbaa !43
  %5 = load ptr, ptr %3, align 8
  %6 = load ptr, ptr @_ZN5arrow7compute8internal12_GLOBAL__N_119kScatterOptionsTypeE, align 8, !tbaa !53
  call void @_ZN5arrow7compute15FunctionOptionsC2EPKNS0_19FunctionOptionsTypeE(ptr noundef nonnull align 8 dereferenceable(16) %5, ptr noundef %6)
  store ptr getelementptr inbounds inrange(-16, 16) ({ [4 x ptr] }, ptr @_ZTVN5arrow7compute14ScatterOptionsE, i32 0, i32 0, i32 2), ptr %5, align 8, !tbaa !165
  %7 = getelementptr inbounds nuw %"class.arrow::compute::ScatterOptions", ptr %5, i32 0, i32 1
  %8 = load i64, ptr %4, align 8, !tbaa !43
  store i64 %8, ptr %7, align 8, !tbaa !279
  ret void
}