; Function Attrs: mustprogress nofree norecurse nosync nounwind willreturn memory(read, argmem: write, inaccessiblemem: none) uwtable
define void @_ZN5arrow7compute14ScatterOptionsC2El(ptr noundef nonnull writeonly align 8 captures(none) dereferenceable(24) initializes((0, 24)) %0, i64 noundef %1) unnamed_addr #2 align 2 {
  %3 = load ptr, ptr @_ZN5arrow7compute8internal12_GLOBAL__N_119kScatterOptionsTypeE, align 8, !tbaa !32
  %4 = getelementptr inbounds nuw i8, ptr %0, i64 8
  store ptr %3, ptr %4, align 8, !tbaa !35
  store ptr getelementptr inbounds nuw inrange(-16, 16) (i8, ptr @_ZTVN5arrow7compute14ScatterOptionsE, i64 16), ptr %0, align 8, !tbaa !37
  %5 = getelementptr inbounds nuw i8, ptr %0, i64 16
  store i64 %1, ptr %5, align 8, !tbaa !110
  ret void
}